target datalayout = "e-m:e-p270:32:32-p271:32:32-p272:64:64-i64:64-i128:128-f80:128-n8:16:32:64-S128"
target triple = "x86_64-pc-linux-gnu"

%"class.grpc_event_engine::experimental::EventEngine::ResolvedAddress" = type { [128 x i8], i32 }
%struct.sockaddr = type { i16, [14 x i8] }
%struct.sockaddr_in6 = type { i16, i16, i32, %struct.in6_addr, i32 }
%struct.in6_addr = type { %union.anon }
%union.anon = type { [4 x i32] }
%struct.sockaddr_in = type { i16, i16, %struct.in_addr, [8 x i8] }
%struct.in_addr = type { i32 }
%"class.absl::lts_20240722::log_internal::Voidify" = type { i8 }
%"class.absl::lts_20240722::log_internal::LogMessageFatal" = type { %"class.absl::lts_20240722::log_internal::LogMessage" }
%"class.absl::lts_20240722::log_internal::LogMessage" = type { %"class.absl::lts_20240722::base_internal::ErrnoSaver", %"class.std::unique_ptr" }
%"class.absl::lts_20240722::base_internal::ErrnoSaver" = type { i32 }
%"class.std::unique_ptr" = type { %"struct.std::__uniq_ptr_data" }
%"struct.std::__uniq_ptr_data" = type { %"class.std::__uniq_ptr_impl" }
%"class.std::__uniq_ptr_impl" = type { %"class.std::tuple" }
%"class.std::tuple" = type { %"struct.std::_Tuple_impl" }
%"struct.std::_Tuple_impl" = type { %"struct.std::_Head_base.1" }
%"struct.std::_Head_base.1" = type { ptr }
%"class.std::basic_string_view" = type { i64, ptr }

@_ZN17grpc_event_engine12experimental12_GLOBAL__N_115kV4MappedPrefixE = internal constant [12 x i8] c"\00\00\00\00\00\00\00\00\00\00\FF\FF", align 1
@.str = private unnamed_addr constant [133 x i8] c"generated/home/dtcxzyw/WorkSpace/Projects/compilers/llvm-opt-benchmark/bench/grpc/grpc/src/core/lib/event_engine/tcp_socket_utils.cc\00", align 1
@.str.1 = private unnamed_addr constant [37 x i8] c"&resolved_addr != resolved_addr6_out\00", align 1

; Function Attrs: noinline noreturn nounwind uwtable
define linkonce_odr hidden void @__clang_call_terminate(ptr noundef %0) #18 comdat {
  %2 = call ptr @__cxa_begin_catch(ptr %0) #3
  call void @_ZSt9terminatev() #24
  unreachable
}

; Function Attrs: mustprogress nounwind uwtable
define linkonce_odr noundef i64 @_ZNSt11char_traitsIcE6lengthEPKc(ptr noundef %0) #10 comdat align 2 {
  %2 = alloca ptr, align 8
  store ptr %0, ptr %2, align 8, !tbaa !35
  %3 = load ptr, ptr %2, align 8, !tbaa !35
  %4 = call i64 @strlen(ptr noundef %3) #3
  ret i64 %4
}

; Function Attrs: mustprogress nounwind uwtable
define linkonce_odr void @_ZNKO4absl12lts_2024072212log_internal7VoidifyaaINS1_10LogMessageEEEvRKT_(ptr noundef nonnull align 1 dereferenceable(1) %0, ptr noundef nonnull align 8 dereferenceable(16) %1) #10 comdat align 2 {
  %3 = alloca ptr, align 8
  %4 = alloca ptr, align 8
  store ptr %0, ptr %3, align 8, !tbaa !29
  store ptr %1, ptr %4, align 8, !tbaa !31
  ret void
}

; Function Attrs: mustprogress nounwind uwtable
define linkonce_odr noundef nonnull align 8 dereferenceable(16) ptr @_ZN4absl12lts_2024072212log_internal10LogMessage14InternalStreamEv(ptr noundef nonnull align 8 dereferenceable(16) %0) #10 comdat align 2 {
  %2 = alloca ptr, align 8
  store ptr %0, ptr %2, align 8, !tbaa !31
  %3 = load ptr, ptr %2, align 8
  ret ptr %3
}

; Function Attrs: mustprogress nounwind uwtable
define linkonce_odr void @_ZNSt17basic_string_viewIcSt11char_traitsIcEEC2EPKc(ptr noundef nonnull align 8 dereferenceable(16) %0, ptr noundef nonnull %1) unnamed_addr #10 comdat align 2 personality ptr @__gxx_personality_v0 {
  %3 = alloca ptr, align 8
  %4 = alloca ptr, align 8
  store ptr %0, ptr %3, align 8, !tbaa !33
  store ptr %1, ptr %4, align 8, !tbaa !35
  %5 = load ptr, ptr %3, align 8
  %6 = getelementptr inbounds nuw %"class.std::basic_string_view", ptr %5, i32 0, i32 0
  %7 = load ptr, ptr %4, align 8, !tbaa !35
  %8 = invoke noundef i64 @_ZNSt11char_traitsIcE6lengthEPKc(ptr noundef %7)
          to label %9 unwind label %12

9:                                                ; preds = %2
  store i64 %8, ptr %6, align 8, !tbaa !37
  %10 = getelementptr inbounds nuw %"class.std::basic_string_view", ptr %5, i32 0, i32 1
  %11 = load ptr, ptr %4, align 8, !tbaa !35
  store ptr %11, ptr %10, align 8, !tbaa !40
  ret void

12:                                               ; preds = %2
  %13 = landingpad { ptr, i32 }
          catch ptr null
  %14 = extractvalue { ptr, i32 } %13, 0
  call void @__clang_call_terminate(ptr %14) #24
  unreachable
}

; Function Attrs: mustprogress uwtable
define noundef zeroext i1 @_ZN17grpc_event_engine12experimental25ResolvedAddressToV4MappedERKNS0_11EventEngine15ResolvedAddressEPS2_(ptr noundef nonnull align 4 dereferenceable(132) %0, ptr noundef %1) #4 personality ptr @__gxx_personality_v0 {
  %3 = alloca i1, align 1
  %4 = alloca ptr, align 8
  %5 = alloca ptr, align 8
  %6 = alloca %"class.absl::lts_20240722::log_internal::Voidify", align 1
  %7 = alloca %"class.absl::lts_20240722::log_internal::LogMessageFatal", align 8
  %8 = alloca i1, align 1
  %9 = alloca %"class.std::basic_string_view", align 8
  %10 = alloca i1, align 1
  %11 = alloca ptr, align 8
  %12 = alloca i32, align 4
  %13 = alloca ptr, align 8
  %14 = alloca ptr, align 8
  %15 = alloca ptr, align 8
  %16 = alloca %"class.grpc_event_engine::experimental::EventEngine::ResolvedAddress", align 4
  %17 = alloca i32, align 4
  store ptr %0, ptr %4, align 8, !tbaa !3
  store ptr %1, ptr %5, align 8, !tbaa !3
  %18 = load ptr, ptr %4, align 8, !tbaa !3
  %19 = load ptr, ptr %5, align 8, !tbaa !3
  %20 = icmp ne ptr %18, %19
  %21 = xor i1 %20, true
  %22 = zext i1 %21 to i64
  %23 = call i64 @llvm.expect.i64(i64 %22, i64 0)
  %24 = icmp ne i64 %23, 0
  call void @llvm.lifetime.start.p0(i64 1, ptr %6) #3
  store i1 false, ptr %8, align 1
  store i1 false, ptr %10, align 1
  br i1 %24, label %26, label %25

25:                                               ; preds = %2
  br label %34

26:                                               ; preds = %2
  call void @llvm.lifetime.start.p0(i64 16, ptr %7) #3
  store i1 true, ptr %8, align 1
  call void @_ZNSt17basic_string_viewIcSt11char_traitsIcEEC2EPKc(ptr noundef nonnull align 8 dereferenceable(16) %9, ptr noundef @.str.1) #3
  %27 = getelementptr inbounds nuw { i64, ptr }, ptr %9, i32 0, i32 0
  %28 = load i64, ptr %27, align 8
  %29 = getelementptr inbounds nuw { i64, ptr }, ptr %9, i32 0, i32 1
  %30 = load ptr, ptr %29, align 8
  call void @_ZN4absl12lts_2024072212log_internal15LogMessageFatalC1EPKciSt17basic_string_viewIcSt11char_traitsIcEE(ptr noundef nonnull align 8 dereferenceable(16) %7, ptr noundef @.str, i32 noundef 218, i64 %28, ptr %30) #23
  store i1 true, ptr %10, align 1
  %31 = invoke noundef nonnull align 8 dereferenceable(16) ptr @_ZN4absl12lts_2024072212log_internal10LogMessage14InternalStreamEv(ptr noundef nonnull align 8 dereferenceable(16) %7)
          to label %32 unwind label %37

32:                                               ; preds = %26
  invoke void @_ZNKO4absl12lts_2024072212log_internal7VoidifyaaINS1_10LogMessageEEEvRKT_(ptr noundef nonnull align 1 dereferenceable(1) %6, ptr noundef nonnull align 8 dereferenceable(16) %31)
          to label %33 unwind label %37

33:                                               ; preds = %32
  br label %34

34:                                               ; preds = %33, %25
  %35 = load i1, ptr %10, align 1
  br i1 %35, label %36, label %43

36:                                               ; preds = %34
  call void @_ZN4absl12lts_2024072212log_internal15LogMessageFatalD1Ev(ptr noundef nonnull align 8 dereferenceable(16) %7) #24
  unreachable

37:                                               ; preds = %32, %26
  %38 = landingpad { ptr, i32 }
          cleanup
  %39 = extractvalue { ptr, i32 } %38, 0
  store ptr %39, ptr %11, align 8
  %40 = extractvalue { ptr, i32 } %38, 1
  store i32 %40, ptr %12, align 4
  %41 = load i1, ptr %10, align 1
  br i1 %41, label %78, label %80

42:                                               ; No predecessors!
  br label %43

43:                                               ; preds = %42, %34
  %44 = load i1, ptr %8, align 1
  br i1 %44, label %45, label %46

45:                                               ; preds = %43
  call void @llvm.lifetime.end.p0(i64 16, ptr %7) #3
  br label %46

46:                                               ; preds = %45, %43
  call void @llvm.lifetime.end.p0(i64 1, ptr %6) #3
  call void @llvm.lifetime.start.p0(i64 8, ptr %13) #3
  %47 = load ptr, ptr %4, align 8, !tbaa !3
  %48 = call noundef ptr @_ZNK17grpc_event_engine12experimental11EventEngine15ResolvedAddress7addressEv(ptr noundef nonnull align 4 dereferenceable(132) %47)
  store ptr %48, ptr %13, align 8, !tbaa !8
  call void @llvm.lifetime.start.p0(i64 8, ptr %14) #3
  %49 = load ptr, ptr %5, align 8, !tbaa !3
  %50 = call noundef ptr @_ZNK17grpc_event_engine12experimental11EventEngine15ResolvedAddress7addressEv(ptr noundef nonnull align 4 dereferenceable(132) %49)
  store ptr %50, ptr %14, align 8, !tbaa !13
  %51 = load ptr, ptr %13, align 8, !tbaa !8
  %52 = getelementptr inbounds nuw %struct.sockaddr, ptr %51, i32 0, i32 0
  %53 = load i16, ptr %52, align 2, !tbaa !10
  %54 = zext i16 %53 to i32
  %55 = icmp eq i32 %54, 2
  br i1 %55, label %56, label %84

56:                                               ; preds = %46
  call void @llvm.lifetime.start.p0(i64 8, ptr %15) #3
  %57 = load ptr, ptr %13, align 8, !tbaa !8
  store ptr %57, ptr %15, align 8, !tbaa !15
  %58 = load ptr, ptr %5, align 8, !tbaa !3
  call void @llvm.memset.p0.i64(ptr align 4 %58, i8 0, i64 132, i1 false)
  %59 = load ptr, ptr %14, align 8, !tbaa !13
  %60 = getelementptr inbounds nuw %struct.sockaddr_in6, ptr %59, i32 0, i32 0
  store i16 10, ptr %60, align 4, !tbaa !28
  %61 = load ptr, ptr %14, align 8, !tbaa !13
  %62 = getelementptr inbounds nuw %struct.sockaddr_in6, ptr %61, i32 0, i32 3
  %63 = getelementptr inbounds nuw %struct.in6_addr, ptr %62, i32 0, i32 0
  %64 = getelementptr inbounds [16 x i8], ptr %63, i64 0, i64 0
  call void @llvm.memcpy.p0.p0.i64(ptr align 4 %64, ptr align 1 @_ZN17grpc_event_engine12experimental12_GLOBAL__N_115kV4MappedPrefixE, i64 12, i1 false)
  %65 = load ptr, ptr %14, align 8, !tbaa !13
  %66 = getelementptr inbounds nuw %struct.sockaddr_in6, ptr %65, i32 0, i32 3
  %67 = getelementptr inbounds nuw %struct.in6_addr, ptr %66, i32 0, i32 0
  %68 = getelementptr inbounds [16 x i8], ptr %67, i64 0, i64 12
  %69 = load ptr, ptr %15, align 8, !tbaa !15
  %70 = getelementptr inbounds nuw %struct.sockaddr_in, ptr %69, i32 0, i32 2
  call void @llvm.memcpy.p0.p0.i64(ptr align 4 %68, ptr align 4 %70, i64 4, i1 false)
  %71 = load ptr, ptr %15, align 8, !tbaa !15
  %72 = getelementptr inbounds nuw %struct.sockaddr_in, ptr %71, i32 0, i32 1
  %73 = load i16, ptr %72, align 2, !tbaa !24
  %74 = load ptr, ptr %14, align 8, !tbaa !13
  %75 = getelementptr inbounds nuw %struct.sockaddr_in6, ptr %74, i32 0, i32 1
  store i16 %73, ptr %75, align 2, !tbaa !21
  call void @llvm.lifetime.start.p0(i64 132, ptr %16) #3
  %76 = load ptr, ptr %14, align 8, !tbaa !13
  call void @_ZN17grpc_event_engine12experimental11EventEngine15ResolvedAddressC1EPK8sockaddrj(ptr noundef nonnull align 4 dereferenceable(132) %16, ptr noundef %76, i32 noundef 28)
  %77 = load ptr, ptr %5, align 8, !tbaa !3
  call void @llvm.memcpy.p0.p0.i64(ptr align 4 %77, ptr align 4 %16, i64 132, i1 false), !tbaa.struct !25
  call void @llvm.lifetime.end.p0(i64 132, ptr %16) #3
  store i1 true, ptr %3, align 1
  store i32 1, ptr %17, align 4
  call void @llvm.lifetime.end.p0(i64 8, ptr %15) #3
  br label %85

78:                                               ; preds = %37
  call void @_ZN4absl12lts_2024072212log_internal15LogMessageFatalD1Ev(ptr noundef nonnull align 8 dereferenceable(16) %7) #24
  unreachable

79:                                               ; No predecessors!
  br label %80

80:                                               ; preds = %79, %37
  %81 = load i1, ptr %8, align 1
  br i1 %81, label %82, label %83

82:                                               ; preds = %80
  call void @llvm.lifetime.end.p0(i64 16, ptr %7) #3
  br label %83

83:                                               ; preds = %82, %80
  call void @llvm.lifetime.end.p0(i64 1, ptr %6) #3
  br label %87

84:                                               ; preds = %46
  store i1 false, ptr %3, align 1
  store i32 1, ptr %17, align 4
  br label %85

85:                                               ; preds = %84, %56
  call void @llvm.lifetime.end.p0(i64 8, ptr %14) #3
  call void @llvm.lifetime.end.p0(i64 8, ptr %13) #3
  %86 = load i1, ptr %3, align 1
  ret i1 %86

87:                                               ; preds = %83
  %88 = load ptr, ptr %11, align 8
  %89 = load i32, ptr %12, align 4
  %90 = insertvalue { ptr, i32 } poison, ptr %88, 0
  %91 = insertvalue { ptr, i32 } %90, i32 %89, 1
  resume { ptr, i32 } %91
}