; Function Attrs: mustprogress uwtable
define noundef zeroext i1 @_ZN17grpc_event_engine12experimental25ResolvedAddressToV4MappedERKNS0_11EventEngine15ResolvedAddressEPS2_(ptr noundef nonnull align 4 dereferenceable(132) %0, ptr noundef %1) local_unnamed_addr #3 personality ptr @__gxx_personality_v0 {
  %3 = alloca %"class.absl::lts_20240722::log_internal::LogMessageFatal", align 8
  %4 = alloca %"class.grpc_event_engine::experimental::EventEngine::ResolvedAddress", align 4
  %.not = icmp eq ptr %0, %1
  br i1 %.not, label %5, label %.critedge, !prof !19

5:                                                ; preds = %2
  call void @llvm.lifetime.start.p0(i64 16, ptr nonnull %3) #25
  call void @_ZN4absl12lts_2024072212log_internal15LogMessageFatalC1EPKciSt17basic_string_viewIcSt11char_traitsIcEE(ptr noundef nonnull align 8 dereferenceable(16) %3, ptr noundef nonnull @.str, i32 noundef 218, i64 36, ptr nonnull @.str.1) #26
  call void @_ZN4absl12lts_2024072212log_internal15LogMessageFatalD1Ev(ptr noundef nonnull align 8 dereferenceable(16) %3) #27
  unreachable

.critedge:                                        ; preds = %2
  %6 = tail call noundef ptr @_ZNK17grpc_event_engine12experimental11EventEngine15ResolvedAddress7addressEv(ptr noundef nonnull align 4 dereferenceable(132) %0)
  %7 = tail call noundef ptr @_ZNK17grpc_event_engine12experimental11EventEngine15ResolvedAddress7addressEv(ptr noundef nonnull align 4 dereferenceable(132) %1)
  %8 = load i16, ptr %6, align 2, !tbaa !3
  %9 = icmp eq i16 %8, 2
  br i1 %9, label %10, label %18

10:                                               ; preds = %.critedge
  tail call void @llvm.memset.p0.i64(ptr noundef nonnull align 4 dereferenceable(132) %1, i8 0, i64 132, i1 false)
  store i16 10, ptr %7, align 4, !tbaa !20
  %11 = getelementptr inbounds nuw i8, ptr %7, i64 8
  tail call void @llvm.memcpy.p0.p0.i64(ptr noundef nonnull align 4 dereferenceable(12) %11, ptr noundef nonnull align 1 dereferenceable(12) @_ZN17grpc_event_engine12experimental12_GLOBAL__N_115kV4MappedPrefixE, i64 12, i1 false)
  %12 = getelementptr inbounds nuw i8, ptr %7, i64 20
  %13 = getelementptr inbounds nuw i8, ptr %6, i64 4
  %14 = load i32, ptr %13, align 4
  store i32 %14, ptr %12, align 4
  %15 = getelementptr inbounds nuw i8, ptr %6, i64 2
  %16 = load i16, ptr %15, align 2, !tbaa !15
  %17 = getelementptr inbounds nuw i8, ptr %7, i64 2
  store i16 %16, ptr %17, align 2, !tbaa !12
  call void @llvm.lifetime.start.p0(i64 132, ptr nonnull %4) #25
  call void @_ZN17grpc_event_engine12experimental11EventEngine15ResolvedAddressC1EPK8sockaddrj(ptr noundef nonnull align 4 dereferenceable(132) %4, ptr noundef nonnull %7, i32 noundef 28)
  call void @llvm.memcpy.p0.p0.i64(ptr noundef nonnull align 4 dereferenceable(132) %1, ptr noundef nonnull align 4 dereferenceable(132) %4, i64 132, i1 false), !tbaa.struct !16
  call void @llvm.lifetime.end.p0(i64 132, ptr nonnull %4) #25
  br label %18

18:                                               ; preds = %.critedge, %10
  ret i1 %9
}